; Function Attrs: nounwind uwtable
define internal i32 @test_CTX_set1_get0_proxy() #1 {
  %1 = tail call fastcc ptr @set_up(ptr noundef nonnull @.str.11)
  %2 = icmp eq ptr %1, null
  br i1 %2, label %64, label %3

3:                                                ; preds = %0
  %4 = getelementptr i8, ptr %1, i64 8
  %.val = load ptr, ptr %4, align 8, !tbaa !4
  %5 = tail call noalias ptr @CRYPTO_strdup(ptr noundef nonnull @.str.126, ptr noundef nonnull @.str, i32 noundef 495) #6
  %6 = tail call noalias ptr @CRYPTO_strdup(ptr noundef nonnull @.str.126, ptr noundef nonnull @.str, i32 noundef 495) #6
  %7 = tail call i64 @ERR_peek_error() #6
  %8 = trunc i64 %7 to i32
  %9 = tail call i32 @test_int_eq(ptr noundef nonnull @.str, i32 noundef 754, ptr noundef nonnull @.str.62, ptr noundef nonnull @.str.63, i32 noundef %8, i32 noundef 0) #6
  %10 = tail call i32 @OSSL_CMP_CTX_set1_proxy(ptr noundef null, ptr noundef %5) #6
  %.not38.i = icmp eq i32 %10, 0
  br i1 %.not38.i, label %11, label %14

11:                                               ; preds = %3
  %.not.i = icmp ne i32 %9, 0
  %spec.select.i = zext i1 %.not.i to i32
  %12 = tail call i64 @ERR_peek_error() #6
  %13 = icmp eq i64 %12, 0
  br i1 %13, label %14, label %15

14:                                               ; preds = %11, %3
  tail call void (ptr, i32, ptr, ...) @test_error(ptr noundef nonnull @.str, i32 noundef 754, ptr noundef nonnull @.str.64) #6
  br label %15

15:                                               ; preds = %14, %11
  %.1.i = phi i32 [ 0, %14 ], [ %spec.select.i, %11 ]
  tail call void @ERR_clear_error() #6
  tail call void @ERR_new() #6
  tail call void @ERR_set_debug(ptr noundef nonnull @.str, i32 noundef 754, ptr noundef nonnull @__func__.OSSL_CMP_CTX_get0_proxy) #6
  tail call void (i32, i32, ptr, ...) @ERR_set_error(i32 noundef 58, i32 noundef 103, ptr noundef null) #6
  %16 = tail call i64 @ERR_peek_error() #6
  %17 = icmp eq i64 %16, 0
  br i1 %17, label %18, label %19

18:                                               ; preds = %15
  tail call void (ptr, i32, ptr, ...) @test_error(ptr noundef nonnull @.str, i32 noundef 754, ptr noundef nonnull @.str.65) #6
  br label %19

19:                                               ; preds = %18, %15
  %.2.i = phi i32 [ 0, %18 ], [ %.1.i, %15 ]
  tail call void @ERR_clear_error() #6
  %20 = icmp eq ptr %.val, null
  br i1 %20, label %OSSL_CMP_CTX_get0_proxy.exit.thread.i, label %OSSL_CMP_CTX_get0_proxy.exit.i

OSSL_CMP_CTX_get0_proxy.exit.thread.i:            ; preds = %19
  tail call void @ERR_new() #6
  tail call void @ERR_set_debug(ptr noundef nonnull @.str, i32 noundef 754, ptr noundef nonnull @__func__.OSSL_CMP_CTX_get0_proxy) #6
  tail call void (i32, i32, ptr, ...) @ERR_set_error(i32 noundef 58, i32 noundef 103, ptr noundef null) #6
  br label %25

OSSL_CMP_CTX_get0_proxy.exit.i:                   ; preds = %19
  %21 = getelementptr inbounds nuw i8, ptr %.val, i64 80
  %22 = load ptr, ptr %21, align 8, !tbaa !47
  %23 = icmp eq ptr %22, null
  br i1 %23, label %25, label %24

24:                                               ; preds = %OSSL_CMP_CTX_get0_proxy.exit.i
  tail call void (ptr, i32, ptr, ...) @test_error(ptr noundef nonnull @.str, i32 noundef 754, ptr noundef nonnull @.str.66) #6
  br label %25

25:                                               ; preds = %24, %OSSL_CMP_CTX_get0_proxy.exit.i, %OSSL_CMP_CTX_get0_proxy.exit.thread.i
  %.3.i = phi i32 [ %.2.i, %OSSL_CMP_CTX_get0_proxy.exit.i ], [ 0, %24 ], [ %.2.i, %OSSL_CMP_CTX_get0_proxy.exit.thread.i ]
  %26 = tail call i32 @OSSL_CMP_CTX_set1_proxy(ptr noundef %.val, ptr noundef %5) #6
  %.not40.i = icmp eq i32 %26, 0
  br i1 %.not40.i, label %27, label %28

27:                                               ; preds = %25
  tail call void (ptr, i32, ptr, ...) @test_error(ptr noundef nonnull @.str, i32 noundef 754, ptr noundef nonnull @.str.67) #6
  br label %28

28:                                               ; preds = %27, %25
  %.4.i = phi i32 [ %.3.i, %25 ], [ 0, %27 ]
  br i1 %20, label %OSSL_CMP_CTX_get0_proxy.exit46.thread.i, label %OSSL_CMP_CTX_get0_proxy.exit46.i

OSSL_CMP_CTX_get0_proxy.exit46.i:                 ; preds = %28
  %29 = getelementptr inbounds nuw i8, ptr %.val, i64 80
  %30 = load ptr, ptr %29, align 8, !tbaa !47
  %31 = icmp eq ptr %30, %5
  br i1 %31, label %.thread.i, label %33

OSSL_CMP_CTX_get0_proxy.exit46.thread.i:          ; preds = %28
  tail call void @ERR_new() #6
  tail call void @ERR_set_debug(ptr noundef nonnull @.str, i32 noundef 754, ptr noundef nonnull @__func__.OSSL_CMP_CTX_get0_proxy) #6
  tail call void (i32, i32, ptr, ...) @ERR_set_error(i32 noundef 58, i32 noundef 103, ptr noundef null) #6
  %32 = icmp eq ptr %5, null
  br i1 %32, label %.thread.i, label %.thread12.i

.thread.i:                                        ; preds = %OSSL_CMP_CTX_get0_proxy.exit46.thread.i, %OSSL_CMP_CTX_get0_proxy.exit46.i
  tail call void (ptr, i32, ptr, ...) @test_error(ptr noundef nonnull @.str, i32 noundef 754, ptr noundef nonnull @.str.122) #6
  br label %.thread12.i

33:                                               ; preds = %OSSL_CMP_CTX_get0_proxy.exit46.i
  %34 = icmp eq ptr %30, null
  br i1 %34, label %.thread12.i, label %35

.thread12.i:                                      ; preds = %33, %.thread.i, %OSSL_CMP_CTX_get0_proxy.exit46.thread.i
  tail call void (ptr, i32, ptr, ...) @test_error(ptr noundef nonnull @.str, i32 noundef 754, ptr noundef nonnull @.str.123) #6
  br label %35

35:                                               ; preds = %.thread12.i, %33
  %.6.i = phi i32 [ 0, %.thread12.i ], [ %.4.i, %33 ]
  %36 = tail call i32 @OSSL_CMP_CTX_set1_proxy(ptr noundef %.val, ptr noundef %6) #6
  %.not41.i = icmp eq i32 %36, 0
  br i1 %.not41.i, label %37, label %38

37:                                               ; preds = %35
  tail call void (ptr, i32, ptr, ...) @test_error(ptr noundef nonnull @.str, i32 noundef 754, ptr noundef nonnull @.str.69) #6
  br label %38

38:                                               ; preds = %37, %35
  %.7.i = phi i32 [ %.6.i, %35 ], [ 0, %37 ]
  br i1 %20, label %OSSL_CMP_CTX_get0_proxy.exit48.thread.i, label %OSSL_CMP_CTX_get0_proxy.exit48.i

OSSL_CMP_CTX_get0_proxy.exit48.thread.i:          ; preds = %38
  tail call void @ERR_new() #6
  tail call void @ERR_set_debug(ptr noundef nonnull @.str, i32 noundef 754, ptr noundef nonnull @__func__.OSSL_CMP_CTX_get0_proxy) #6
  tail call void (i32, i32, ptr, ...) @ERR_set_error(i32 noundef 58, i32 noundef 103, ptr noundef null) #6
  br label %42

OSSL_CMP_CTX_get0_proxy.exit48.i:                 ; preds = %38
  %39 = getelementptr inbounds nuw i8, ptr %.val, i64 80
  %40 = load ptr, ptr %39, align 8, !tbaa !47
  %41 = icmp eq ptr %40, null
  br i1 %41, label %42, label %43

42:                                               ; preds = %OSSL_CMP_CTX_get0_proxy.exit48.i, %OSSL_CMP_CTX_get0_proxy.exit48.thread.i
  tail call void (ptr, i32, ptr, ...) @test_error(ptr noundef nonnull @.str, i32 noundef 754, ptr noundef nonnull @.str.70) #6
  br label %43

43:                                               ; preds = %42, %OSSL_CMP_CTX_get0_proxy.exit48.i
  %.0.i475.i = phi ptr [ null, %42 ], [ %40, %OSSL_CMP_CTX_get0_proxy.exit48.i ]
  %.8.i = phi i32 [ 0, %42 ], [ %.7.i, %OSSL_CMP_CTX_get0_proxy.exit48.i ]
  %44 = icmp eq ptr %.0.i475.i, %6
  br i1 %44, label %45, label %46

45:                                               ; preds = %43
  tail call void (ptr, i32, ptr, ...) @test_error(ptr noundef nonnull @.str, i32 noundef 754, ptr noundef nonnull @.str.124) #6
  br label %46

46:                                               ; preds = %45, %43
  %.034.i = phi ptr [ null, %45 ], [ %.0.i475.i, %43 ]
  %.9.i = phi i32 [ 0, %45 ], [ %.8.i, %43 ]
  %47 = icmp eq ptr %6, %5
  br i1 %47, label %48, label %49

48:                                               ; preds = %46
  tail call void (ptr, i32, ptr, ...) @test_error(ptr noundef nonnull @.str, i32 noundef 754, ptr noundef nonnull @.str.125) #6
  br label %49

49:                                               ; preds = %48, %46
  %.10.i = phi i32 [ 0, %48 ], [ %.9.i, %46 ]
  br i1 %20, label %OSSL_CMP_CTX_get0_proxy.exit50.thread.i, label %OSSL_CMP_CTX_get0_proxy.exit50.i

OSSL_CMP_CTX_get0_proxy.exit50.thread.i:          ; preds = %49
  tail call void @ERR_new() #6
  tail call void @ERR_set_debug(ptr noundef nonnull @.str, i32 noundef 754, ptr noundef nonnull @__func__.OSSL_CMP_CTX_get0_proxy) #6
  tail call void (i32, i32, ptr, ...) @ERR_set_error(i32 noundef 58, i32 noundef 103, ptr noundef null) #6
  br label %53

OSSL_CMP_CTX_get0_proxy.exit50.i:                 ; preds = %49
  %50 = getelementptr inbounds nuw i8, ptr %.val, i64 80
  %51 = load ptr, ptr %50, align 8, !tbaa !47
  %52 = icmp eq ptr %51, null
  br i1 %52, label %53, label %54

53:                                               ; preds = %OSSL_CMP_CTX_get0_proxy.exit50.i, %OSSL_CMP_CTX_get0_proxy.exit50.thread.i
  tail call void (ptr, i32, ptr, ...) @test_error(ptr noundef nonnull @.str, i32 noundef 754, ptr noundef nonnull @.str.72) #6
  br label %54

54:                                               ; preds = %53, %OSSL_CMP_CTX_get0_proxy.exit50.i
  %.0.i498.i = phi ptr [ null, %53 ], [ %51, %OSSL_CMP_CTX_get0_proxy.exit50.i ]
  %.11.i = phi i32 [ 0, %53 ], [ %.10.i, %OSSL_CMP_CTX_get0_proxy.exit50.i ]
  %.not42.i = icmp eq ptr %.0.i498.i, %.034.i
  br i1 %.not42.i, label %tear_down.exit, label %55

55:                                               ; preds = %54
  tail call void (ptr, i32, ptr, ...) @test_error(ptr noundef nonnull @.str, i32 noundef 754, ptr noundef nonnull @.str.73) #6
  br label %tear_down.exit

tear_down.exit:                                   ; preds = %54, %55
  %.12.i = phi i32 [ 0, %55 ], [ %.11.i, %54 ]
  %56 = tail call i64 @ERR_peek_error() #6
  %57 = trunc i64 %56 to i32
  %58 = tail call i32 @test_int_eq(ptr noundef nonnull @.str, i32 noundef 754, ptr noundef nonnull @.str.62, ptr noundef nonnull @.str.63, i32 noundef %57, i32 noundef 0) #6
  %.not43.i = icmp ne i32 %58, 0
  tail call void @CRYPTO_free(ptr noundef %5, ptr noundef nonnull @.str, i32 noundef 500) #6
  tail call void @CRYPTO_free(ptr noundef %6, ptr noundef nonnull @.str, i32 noundef 500) #6
  %59 = icmp ne i32 %.12.i, 0
  %60 = select i1 %.not43.i, i1 %59, i1 false
  %61 = zext i1 %60 to i32
  %62 = tail call i32 @test_true(ptr noundef nonnull @.str, i32 noundef 754, ptr noundef nonnull @.str.74, i32 noundef %61) #6
  %63 = load ptr, ptr %4, align 8, !tbaa !4
  tail call void @OSSL_CMP_CTX_free(ptr noundef %63) #6
  tail call void @CRYPTO_free(ptr noundef nonnull %1, ptr noundef nonnull @.str, i32 noundef 25) #6
  br label %64

64:                                               ; preds = %0, %tear_down.exit
  %.05 = phi i32 [ %62, %tear_down.exit ], [ 0, %0 ]
  ret i32 %.05
}